target datalayout = "e-m:e-p270:32:32-p271:32:32-p272:64:64-i64:64-i128:128-f80:128-n8:16:32:64-S128"
target triple = "x86_64-pc-linux-gnu"

%"struct.faiss::MatrixStats::PerDimStats" = type { i64, i64, i64, i64, float, float, double, double, i64, double, double }

; Function Attrs: mustprogress nounwind uwtable
define void @_ZN5faiss11MatrixStats11PerDimStats16compute_mean_stdEv(ptr noundef nonnull align 8 dereferenceable(80) %0) #1 align 2 {
  %2 = alloca ptr, align 8
  %3 = alloca double, align 8
  store ptr %0, ptr %2, align 8, !tbaa !4
  %4 = load ptr, ptr %2, align 8
  %5 = getelementptr inbounds nuw %"struct.faiss::MatrixStats::PerDimStats", ptr %4, i32 0, i32 0
  %6 = load i64, ptr %5, align 8, !tbaa !11
  %7 = getelementptr inbounds nuw %"struct.faiss::MatrixStats::PerDimStats", ptr %4, i32 0, i32 1
  %8 = load i64, ptr %7, align 8, !tbaa !15
  %9 = sub i64 %6, %8
  %10 = getelementptr inbounds nuw %"struct.faiss::MatrixStats::PerDimStats", ptr %4, i32 0, i32 2
  %11 = load i64, ptr %10, align 8, !tbaa !16
  %12 = sub i64 %9, %11
  %13 = getelementptr inbounds nuw %"struct.faiss::MatrixStats::PerDimStats", ptr %4, i32 0, i32 8
  store i64 %12, ptr %13, align 8, !tbaa !22
  %14 = getelementptr inbounds nuw %"struct.faiss::MatrixStats::PerDimStats", ptr %4, i32 0, i32 6
  %15 = load double, ptr %14, align 8, !tbaa !20
  %16 = getelementptr inbounds nuw %"struct.faiss::MatrixStats::PerDimStats", ptr %4, i32 0, i32 8
  %17 = load i64, ptr %16, align 8, !tbaa !22
  %18 = uitofp i64 %17 to double
  %19 = fdiv double %15, %18
  %20 = getelementptr inbounds nuw %"struct.faiss::MatrixStats::PerDimStats", ptr %4, i32 0, i32 9
  store double %19, ptr %20, align 8, !tbaa !23
  call void @llvm.lifetime.start.p0(i64 8, ptr %3) #18
  %21 = getelementptr inbounds nuw %"struct.faiss::MatrixStats::PerDimStats", ptr %4, i32 0, i32 7
  %22 = load double, ptr %21, align 8, !tbaa !21
  %23 = getelementptr inbounds nuw %"struct.faiss::MatrixStats::PerDimStats", ptr %4, i32 0, i32 8
  %24 = load i64, ptr %23, align 8, !tbaa !22
  %25 = uitofp i64 %24 to double
  %26 = fdiv double %22, %25
  %27 = getelementptr inbounds nuw %"struct.faiss::MatrixStats::PerDimStats", ptr %4, i32 0, i32 9
  %28 = load double, ptr %27, align 8, !tbaa !23
  %29 = getelementptr inbounds nuw %"struct.faiss::MatrixStats::PerDimStats", ptr %4, i32 0, i32 9
  %30 = load double, ptr %29, align 8, !tbaa !23
  %31 = fneg double %28
  %32 = call double @llvm.fmuladd.f64(double %31, double %30, double %26)
  store double %32, ptr %3, align 8, !tbaa !24
  %33 = load double, ptr %3, align 8, !tbaa !24
  %34 = fcmp olt double %33, 0.000000e+00
  br i1 %34, label %35, label %36

35:                                               ; preds = %1
  store double 0.000000e+00, ptr %3, align 8, !tbaa !24
  br label %36

36:                                               ; preds = %35, %1
  %37 = load double, ptr %3, align 8, !tbaa !24
  %38 = call double @sqrt(double noundef %37) #18, !tbaa !25
  %39 = getelementptr inbounds nuw %"struct.faiss::MatrixStats::PerDimStats", ptr %4, i32 0, i32 10
  store double %38, ptr %39, align 8, !tbaa !27
  call void @llvm.lifetime.end.p0(i64 8, ptr %3) #18
  ret void
}