; Function Attrs: mustprogress nofree norecurse nosync nounwind willreturn memory(argmem: readwrite) uwtable
define void @_ZN5faiss11MatrixStats11PerDimStats16compute_mean_stdEv(ptr noundef nonnull align 8 captures(none) dereferenceable(80) initializes((56, 80)) %0) local_unnamed_addr #0 align 2 {
  %2 = load i64, ptr %0, align 8, !tbaa !4
  %3 = getelementptr inbounds nuw i8, ptr %0, i64 8
  %4 = load i64, ptr %3, align 8, !tbaa !11
  %5 = getelementptr inbounds nuw i8, ptr %0, i64 16
  %6 = load i64, ptr %5, align 8, !tbaa !12
  %7 = add i64 %4, %6
  %8 = sub i64 %2, %7
  %9 = getelementptr inbounds nuw i8, ptr %0, i64 56
  store i64 %8, ptr %9, align 8, !tbaa !18
  %10 = getelementptr inbounds nuw i8, ptr %0, i64 40
  %11 = load double, ptr %10, align 8, !tbaa !16
  %12 = uitofp i64 %8 to double
  %13 = fdiv double %11, %12
  %14 = getelementptr inbounds nuw i8, ptr %0, i64 64
  store double %13, ptr %14, align 8, !tbaa !19
  %15 = getelementptr inbounds nuw i8, ptr %0, i64 48
  %16 = load double, ptr %15, align 8, !tbaa !17
  %17 = fdiv double %16, %12
  %18 = fneg double %13
  %19 = tail call double @llvm.fmuladd.f64(double %18, double %13, double %17)
  %20 = fcmp olt double %19, 0.000000e+00
  %.0 = select i1 %20, double 0.000000e+00, double %19
  %sqrt = tail call double @llvm.sqrt.f64(double %.0)
  %21 = getelementptr inbounds nuw i8, ptr %0, i64 72
  store double %sqrt, ptr %21, align 8, !tbaa !20
  ret void
}